target datalayout = "e-m:e-p270:32:32-p271:32:32-p272:64:64-i64:64-i128:128-f80:128-n8:16:32:64-S128"
target triple = "x86_64-pc-linux-gnu"

%struct._stritem = type { ptr, ptr, ptr, i32, i32, i32, i16, i16, i8, i8, [0 x %union.anon] }
%union.anon = type { i64 }

@stats_sizes_hist = internal global ptr null, align 8
@stats_sizes_buckets = internal global i32 0, align 4

; Function Attrs: nounwind uwtable
define dso_local void @item_stats_sizes_remove(ptr noundef %0) #0 {
  %2 = alloca ptr, align 8
  %3 = alloca i32, align 4
  %4 = alloca i32, align 4
  store ptr %0, ptr %2, align 8, !tbaa !16
  %5 = load ptr, ptr @stats_sizes_hist, align 8, !tbaa !79
  %6 = icmp eq ptr %5, null
  br i1 %6, label %7, label %8

7:                                                ; preds = %1
  br label %57

8:                                                ; preds = %1
  call void @llvm.lifetime.start.p0(i64 4, ptr %3) #9
  %9 = load ptr, ptr %2, align 8, !tbaa !16
  %10 = getelementptr inbounds nuw %struct._stritem, ptr %9, i32 0, i32 9
  %11 = load i8, ptr %10, align 1, !tbaa !30
  %12 = zext i8 %11 to i64
  %13 = add i64 48, %12
  %14 = add i64 %13, 1
  %15 = load ptr, ptr %2, align 8, !tbaa !16
  %16 = getelementptr inbounds nuw %struct._stritem, ptr %15, i32 0, i32 5
  %17 = load i32, ptr %16, align 8, !tbaa !4
  %18 = sext i32 %17 to i64
  %19 = add i64 %14, %18
  %20 = load ptr, ptr %2, align 8, !tbaa !16
  %21 = getelementptr inbounds nuw %struct._stritem, ptr %20, i32 0, i32 7
  %22 = load i16, ptr %21, align 2, !tbaa !34
  %23 = zext i16 %22 to i32
  %24 = and i32 %23, 256
  %25 = icmp ne i32 %24, 0
  %26 = select i1 %25, i64 4, i64 0
  %27 = add i64 %19, %26
  %28 = load ptr, ptr %2, align 8, !tbaa !16
  %29 = getelementptr inbounds nuw %struct._stritem, ptr %28, i32 0, i32 7
  %30 = load i16, ptr %29, align 2, !tbaa !34
  %31 = zext i16 %30 to i32
  %32 = and i32 %31, 2
  %33 = icmp ne i32 %32, 0
  %34 = select i1 %33, i64 8, i64 0
  %35 = add i64 %27, %34
  %36 = trunc i64 %35 to i32
  store i32 %36, ptr %3, align 4, !tbaa !4
  call void @llvm.lifetime.start.p0(i64 4, ptr %4) #9
  %37 = load i32, ptr %3, align 4, !tbaa !4
  %38 = sdiv i32 %37, 32
  store i32 %38, ptr %4, align 4, !tbaa !4
  %39 = load i32, ptr %3, align 4, !tbaa !4
  %40 = srem i32 %39, 32
  %41 = icmp ne i32 %40, 0
  br i1 %41, label %42, label %45

42:                                               ; preds = %8
  %43 = load i32, ptr %4, align 4, !tbaa !4
  %44 = add nsw i32 %43, 1
  store i32 %44, ptr %4, align 4, !tbaa !4
  br label %45

45:                                               ; preds = %42, %8
  %46 = load i32, ptr %4, align 4, !tbaa !4
  %47 = load i32, ptr @stats_sizes_buckets, align 4, !tbaa !4
  %48 = icmp slt i32 %46, %47
  br i1 %48, label %49, label %56

49:                                               ; preds = %45
  %50 = load ptr, ptr @stats_sizes_hist, align 8, !tbaa !79
  %51 = load i32, ptr %4, align 4, !tbaa !4
  %52 = sext i32 %51 to i64
  %53 = getelementptr inbounds i32, ptr %50, i64 %52
  %54 = load i32, ptr %53, align 4, !tbaa !4
  %55 = add i32 %54, -1
  store i32 %55, ptr %53, align 4, !tbaa !4
  br label %56

56:                                               ; preds = %49, %45
  call void @llvm.lifetime.end.p0(i64 4, ptr %4) #9
  call void @llvm.lifetime.end.p0(i64 4, ptr %3) #9
  br label %57

57:                                               ; preds = %56, %7
  ret void
}