; Function Attrs: mustprogress nofree norecurse nosync nounwind willreturn memory(readwrite, inaccessiblemem: none) uwtable
define dso_local void @item_stats_sizes_remove(ptr noundef readonly captures(none) %0) local_unnamed_addr #9 {
  %2 = load ptr, ptr @stats_sizes_hist, align 8, !tbaa !73
  %3 = icmp eq ptr %2, null
  br i1 %3, label %31, label %4

4:                                                ; preds = %1
  %5 = getelementptr inbounds nuw i8, ptr %0, i64 41
  %6 = load i8, ptr %5, align 1, !tbaa !30
  %7 = zext i8 %6 to i32
  %8 = add nuw nsw i32 %7, 49
  %9 = getelementptr inbounds nuw i8, ptr %0, i64 32
  %10 = load i32, ptr %9, align 8, !tbaa !22
  %11 = add i32 %8, %10
  %12 = getelementptr inbounds nuw i8, ptr %0, i64 38
  %13 = load i16, ptr %12, align 2, !tbaa !31
  %14 = zext i16 %13 to i32
  %15 = lshr i32 %14, 6
  %16 = and i32 %15, 4
  %17 = add i32 %11, %16
  %18 = shl nuw nsw i32 %14, 2
  %19 = and i32 %18, 8
  %20 = add i32 %17, %19
  %21 = sdiv i32 %20, 32
  %22 = and i32 %20, 31
  %.not = icmp ne i32 %22, 0
  %23 = zext i1 %.not to i32
  %spec.select = add nsw i32 %21, %23
  %24 = load i32, ptr @stats_sizes_buckets, align 4, !tbaa !22
  %25 = icmp slt i32 %spec.select, %24
  br i1 %25, label %26, label %31

26:                                               ; preds = %4
  %27 = sext i32 %spec.select to i64
  %28 = getelementptr inbounds i32, ptr %2, i64 %27
  %29 = load i32, ptr %28, align 4, !tbaa !22
  %30 = add i32 %29, -1
  store i32 %30, ptr %28, align 4, !tbaa !22
  br label %31

31:                                               ; preds = %4, %26, %1
  ret void
}